(dp1
S'output'
p2
S''
sS'layer'
p3
S'Processing View default/index.html'
p4
sS'code'
p5
S'<!DOCTYPE html PUBLIC "-//W3C//DTD XHTML 1.0 Transitional//EN" "http://www.w3.org/TR/xhtml1/DTD/xhtml1-transitional.dtd">\n<html xmlns="http://www.w3.org/1999/xhtml" xml:lang="{{=T.accepted_language or \'en\'}}">\n  <head>\n    <title>{{=response.title or request.application}}</title>\n    <meta http-equiv="Content-Type" content="text/html; charset=UTF-8" />     \n    {{response.files.append(URL(request.application,\'static\',\'base.css\'))}}\n    {{\nresponse.files.insert(0,URL(r=request,c=\'static\',f=\'jquery.js\'))\nresponse.files.insert(1,URL(r=request,c=\'static\',f=\'calendar.css\'))\nresponse.files.insert(2,URL(r=request,c=\'static\',f=\'calendar.js\'))\nfor _item in response.meta or []:}}\n     <meta name="{{=_item}}" content="{{=response.meta[_item]}}" />{{\npass\nfor _k,_file in enumerate(response.files or []):\n  if _file in response.files[:_k]:\n     continue\n  elif _file[-4:].lower()==\'.css\':}}\n     <link href="{{=_file}}" rel="stylesheet" type="text/css" charset="utf-8" />{{\n  elif _file[-3:].lower()==\'.js\':}}\n     <script src="{{=_file}}" type="text/javascript"></script>{{\n  pass\npass\n}}\n<script type="text/javascript"><!--\nfunction popup(url) {\n  newwindow=window.open(url,\'name\',\'height=400,width=600\');\n  if (window.focus) newwindow.focus();\n  return false;\n}\nfunction collapse(id) { jQuery(\'#\'+id).slideToggle(); }\nfunction fade(id,value) { if(value>0) jQuery(\'#\'+id).hide().fadeIn(\'slow\'); else jQuery(\'#\'+id).show().fadeOut(\'slow\'); }\nfunction ajax(u,s,t) {\n  var query="";\n  for(i=0; i<s.length; i++) { \n     if(i>0) query=query+"&";\n     query=query+encodeURIComponent(s[i])+"="+encodeURIComponent(document.getElementById(s[i]).value);\n  }\n  jQuery.ajax({type: "POST", url: u, data: query, success: function(msg) { if(t==\':eval\') eval(msg); else document.getElementById(t).innerHTML=msg; } });  \n}\nString.prototype.reverse = function () { return this.split(\'\').reverse().join(\'\');};\nfunction web2py_ajax_init() {\n  jQuery(\'.hidden\').hide();\n  jQuery(\'.error\').hide().slideDown(\'slow\');\n  jQuery(\'.flash\').click(function() { jQuery(this).fadeOut(\'slow\'); return false; });\n  jQuery(\'input.integer\').keyup(function(){this.value=this.value.reverse().replace(/[^0-9\\-]|\\-(?=.)/g,\'\').reverse();});\n  jQuery(\'input.double\').keyup(function(){this.value=this.value.reverse().replace(/[^0-9\\-\\.]|[\\-](?=.)|[\\.](?=[0-9]*[\\.])/g,\'\').reverse();});\n  jQuery("input[type=\'checkbox\'].delete").click(function() { if(this.checked) if(!confirm("{{=T(\'Sure you want to delete this object?\')}}")) this.checked=false; }); \n  try {jQuery("input.date").focus( function() {Calendar.setup({\n     inputField:this.id, ifFormat:"{{=T(\'%Y-%m-%d\')}}", showsTime:false\n  }); }); } catch(e) {};\n  try { jQuery("input.datetime").focus( function() {Calendar.setup({\n     inputField:this.id, ifFormat:"{{=T(\'%Y-%m-%d %H:%M:%S\')}}", showsTime: true,timeFormat: "24"\n  }); }); } catch(e) {};\n  try { jQuery("input.time").clockpick({\n      starthour:0, endhour:23, showminutes:true, military:true\n  }); } catch(e) {};\n};\njQuery(document).ready(function(){\n   jQuery(\'.flash\').hide();\n   if(jQuery(\'.flash\').html()!=\'\') jQuery(\'.flash\').slideDown(\'slow\');\n   web2py_ajax_init();});\n\nfunction web2py_trap_form(action,target) {\n   jQuery(\'#\'+target+\' form\').each(function(i){\n      var form=jQuery(this);\n      jQuery(\':submit,.submit\',this).click(function(){\n         jQuery(\'.flash\').hide().html(\'\');\n         web2py_ajax_page(\'post\',action,form.serialize(),target);\n         return false;\n      });\n   });\n}\nfunction web2py_ajax_page(method,action,data,target) {\n  jQuery.ajax({\'type\':method,\'url\':action,\'data\':data,\n    \'beforeSend\':function(xhr){\n      xhr.setRequestHeader(\'web2py-component-location\',document.location);\n      xhr.setRequestHeader(\'web2py-component-element\',target);},\n    \'complete\':function(xhr,text){\n      command=xhr.getResponseHeader(\'web2py-component-command\');\n      if(command) eval(command);\n      flash=xhr.getResponseHeader(\'web2py-component-flash\');\n      if(flash) jQuery(\'.flash\').html(flash).slideDown();\n      },\n    \'success\': function(text) {\n      jQuery(\'#\'+target).html(text);\n      web2py_trap_form(action,target);\n      web2py_ajax_init();\n      }\n    });\n}\nfunction web2py_component(action,target) {\n    jQuery(document).ready(function(){ web2py_ajax_page(\'get\',action,null,target); });\n}\n//--></script>\n\n  </head>\n  <body>\n    <div class="wrapper">\n      <table class="layout">\n        <tr>\n          <td colspan="3"  class="header">\n            <h1>\n              {{=A(response.title or request.application, _href=URL(request.application,\'default\',\'index\'))}}\n            </h1>            \n            <h3>{{=response.subtitle or \'\'}}</h3>\n            <style type="text/css">\ndiv#nav_aria li, h2 {\n display: inline;\n padding-left: 0.5em;\n background-repeat: no-repeat;\n background-position: left center;\n}\n\ndiv#nav_aria li.nobullet {\n background-image: none;\n}\n\ndiv#nav_aria a {\n padding: 0px;\n padding-right: 0.25em;\n padding-left: 0.25em;\n text-decoration: none;\n}\n\ndiv#nav_aria a:link, div#nav_aria a:visited {\n font-weight: bold;\n}\n\ndiv#nav_aria a:hover, div#nav_aria a:focus {\n color: #f5b673;\n background-color: rgb(56,56,73);\n}\n</style>\n<div id="nav_aria" style="text-align: left;" >\n    <h2 class="nav_aria" id="nav1_label">Career Counseling Resources</h2>\n    <ul id="navigation1" role="navigation" aria-labelledby="nav1_label" tabindex="-1">\n        <li class="nobullet"><a href="http://www.uiuc.edu/">school, work, life balance</a></li>\n        <li><a href="http://www.uiuc.edu/">tools to get the job</a></li>\n        <li><a href="http://www.uiuc.edu/">career exploration</a></li>\n        <li><a href="http://www.uiuc.edu/">self exploration</a></li>\n    </ul>\n</div>\n\n          </td>\n        </tr>\n        <tr>\n          <td colspan="3" class="statusbar">\n            {{=\'/\'.join([\'\',request.application,request.controller,request.function]+request.args)}}\n        {{ if \'auth\' in globals():}}\n        [ {{if not auth.user:}}\n        <a href="{{=URL(r=request,f=\'user/login\')}}">{{=T(\'login\')}}</a> |\n        <a href="{{=URL(r=request,f=\'user/register\')}}">{{=T(\'register\')}}</a> |\n        <a href="{{=URL(r=request,f=\'user/request_reset_password\')}}">{{=T(\'lost password\')}}</a>\n        {{else:}}\n        {{=auth.user.first_name}} |\n        <a href="{{=URL(r=request,f=\'user/logout\')}}">{{=T(\'logout\')}}</a> |\n        <a href="{{=URL(r=request,f=\'user/change_password\')}}">{{=T(\'change password\')}}</a> |\n        <a href="{{=URL(r=request,f=\'user/profile\')}}">{{=T(\'edit profile\')}}</a>\n        {{pass}} ]\n        {{pass}}\n          </td>\n        </tr>\n        <tr>\n          <td class="width10em column1">\n     <!--     {{include \'menu/left_menu.html\'}} -->\n            {{if response.menu:}}\n            <h2>{{=T(\'Main Menu\')}}</h2>\n            {{=MENU(response.menu)}}\n            {{pass}}\n            {{if response.menu_edit:}}\n            <h2>{{=T(\'Edit This App\')}}</h2>\n            {{=MENU(response.menu_edit)}}\n            {{pass}}\n            <br />\n          </td>\n          <td class="expandable column2">\n            <div class="flash">{{=response.flash or \'\'}}</div>\n            \n\n{{try:}}{{=H2(message)}}{{except:}}{{=BEAUTIFY(response._vars)}}{{pass}}\n\n{{=P(A(T("click here for the administrative interface"), _href=URL(\'admin\',\'default\',\'index\')),_style="padding-top:1em;")}}\n{{=P(A(T("click here for online examples"), _href=URL(\'examples\',\'default\',\'index\')))}}\n\n          </td>\n          <!--\n               <td class="width10em column3">\n                 <h2>Right Column</h2>\n               </td>\n          //-->\n        </tr>\n        <tr>\n          <td colspan="10" class="footer">\n            <p>\n            {{=T(\'Copyright\')}} &copy; 2009 -\n            {{=T(\'Powered by\')}} <a href="http://www.web2py.com">web2py</a>\n            </p>\n          </td>\n        </tr>\n      </table>\n    </div>\n  </body>\n</html>\n'
p6
sS'traceback'
p7
S'Traceback (most recent call last):\n  File "/Users/christophersteel/Desktop/web2py/gluon/template.py", line 154, in parse_template\n    fp = open(t, \'rb\')\nIOError: [Errno 2] No such file or directory: \'/Users/christophersteel/Desktop/web2py/applications/uc_aria/views/menu/left_menu.html\'\n'
p8
s.